target datalayout = "e-m:e-p270:32:32-p271:32:32-p272:64:64-i64:64-i128:128-f80:128-n8:16:32:64-S128"
target triple = "x86_64-pc-linux-gnu"

@show_only = internal global i32 0, align 4

; Function Attrs: nounwind uwtable
define internal i32 @prune_subdir(i32 noundef %0, ptr noundef %1, ptr noundef %2) #0 {
  %4 = alloca i32, align 4
  %5 = alloca ptr, align 8
  %6 = alloca ptr, align 8
  store i32 %0, ptr %4, align 4, !tbaa !4
  store ptr %1, ptr %5, align 8, !tbaa !11
  store ptr %2, ptr %6, align 8, !tbaa !37
  %7 = load i32, ptr @show_only, align 4, !tbaa !4
  %8 = icmp ne i32 %7, 0
  br i1 %8, label %12, label %9

9:                                                ; preds = %3
  %10 = load ptr, ptr %5, align 8, !tbaa !11
  %11 = call i32 @lstat_cache_aware_rmdir(ptr noundef %10)
  br label %12

12:                                               ; preds = %9, %3
  ret i32 0
}