; Function Attrs: nounwind uwtable
define internal noundef i32 @prune_subdir(i32 %0, ptr noundef %1, ptr readnone captures(none) %2) #0 {
  %4 = load i32, ptr @show_only, align 4, !tbaa !4
  %.not = icmp eq i32 %4, 0
  br i1 %.not, label %5, label %7

5:                                                ; preds = %3
  %6 = tail call i32 @lstat_cache_aware_rmdir(ptr noundef %1) #12
  br label %7

7:                                                ; preds = %5, %3
  ret i32 0
}